target datalayout = "e-m:e-p270:32:32-p271:32:32-p272:64:64-i64:64-i128:128-f80:128-n8:16:32:64-S128"
target triple = "x86_64-pc-linux-gnu"

%struct.AVComponentDescriptor = type { i32, i32, i32, i32, i32 }
%struct.AVPixFmtDescriptor = type { ptr, i8, i8, i8, i64, [4 x %struct.AVComponentDescriptor], ptr }

; Function Attrs: nounwind uwtable
define ptr @av_pix_fmt_desc_get(i32 noundef %0) #0 {
  %2 = alloca ptr, align 8
  %3 = alloca i32, align 4
  store i32 %0, ptr %3, align 4, !tbaa !15
  %4 = load i32, ptr %3, align 4, !tbaa !15
  %5 = icmp slt i32 %4, 0
  br i1 %5, label %9, label %6

6:                                                ; preds = %1
  %7 = load i32, ptr %3, align 4, !tbaa !15
  %8 = icmp sge i32 %7, 258
  br i1 %8, label %9, label %10

9:                                                ; preds = %6, %1
  store ptr null, ptr %2, align 8
  br label %14

10:                                               ; preds = %6
  %11 = load i32, ptr %3, align 4, !tbaa !15
  %12 = sext i32 %11 to i64
  %13 = getelementptr inbounds [258 x %struct.AVPixFmtDescriptor], ptr @av_pix_fmt_descriptors, i64 0, i64 %12
  store ptr %13, ptr %2, align 8
  br label %14

14:                                               ; preds = %10, %9
  %15 = load ptr, ptr %2, align 8
  ret ptr %15
}

; Function Attrs: nounwind uwtable
define i32 @av_pix_fmt_count_planes(i32 noundef %0) #0 {
  %2 = alloca i32, align 4
  %3 = alloca i32, align 4
  %4 = alloca ptr, align 8
  %5 = alloca i32, align 4
  %6 = alloca [4 x i32], align 16
  %7 = alloca i32, align 4
  %8 = alloca i32, align 4
  store i32 %0, ptr %3, align 4, !tbaa !15
  call void @llvm.lifetime.start.p0(i64 8, ptr %4) #8
  %9 = load i32, ptr %3, align 4, !tbaa !15
  %10 = call ptr @av_pix_fmt_desc_get(i32 noundef %9)
  store ptr %10, ptr %4, align 8, !tbaa !13
  call void @llvm.lifetime.start.p0(i64 4, ptr %5) #8
  call void @llvm.lifetime.start.p0(i64 16, ptr %6) #8
  call void @llvm.memset.p0.i64(ptr align 16 %6, i8 0, i64 16, i1 false)
  call void @llvm.lifetime.start.p0(i64 4, ptr %7) #8
  store i32 0, ptr %7, align 4, !tbaa !15
  %11 = load ptr, ptr %4, align 8, !tbaa !13
  %12 = icmp ne ptr %11, null
  br i1 %12, label %14, label %13

13:                                               ; preds = %1
  store i32 -22, ptr %2, align 4
  store i32 1, ptr %8, align 4
  br label %52

14:                                               ; preds = %1
  store i32 0, ptr %5, align 4, !tbaa !15
  br label %15

15:                                               ; preds = %32, %14
  %16 = load i32, ptr %5, align 4, !tbaa !15
  %17 = load ptr, ptr %4, align 8, !tbaa !13
  %18 = getelementptr inbounds nuw %struct.AVPixFmtDescriptor, ptr %17, i32 0, i32 1
  %19 = load i8, ptr %18, align 8, !tbaa !47
  %20 = zext i8 %19 to i32
  %21 = icmp slt i32 %16, %20
  br i1 %21, label %22, label %35

22:                                               ; preds = %15
  %23 = load ptr, ptr %4, align 8, !tbaa !13
  %24 = getelementptr inbounds nuw %struct.AVPixFmtDescriptor, ptr %23, i32 0, i32 5
  %25 = load i32, ptr %5, align 4, !tbaa !15
  %26 = sext i32 %25 to i64
  %27 = getelementptr inbounds [4 x %struct.AVComponentDescriptor], ptr %24, i64 0, i64 %26
  %28 = getelementptr inbounds nuw %struct.AVComponentDescriptor, ptr %27, i32 0, i32 0
  %29 = load i32, ptr %28, align 4, !tbaa !18
  %30 = sext i32 %29 to i64
  %31 = getelementptr inbounds [4 x i32], ptr %6, i64 0, i64 %30
  store i32 1, ptr %31, align 4, !tbaa !15
  br label %32

32:                                               ; preds = %22
  %33 = load i32, ptr %5, align 4, !tbaa !15
  %34 = add nsw i32 %33, 1
  store i32 %34, ptr %5, align 4, !tbaa !15
  br label %15, !llvm.loop !54

35:                                               ; preds = %15
  store i32 0, ptr %5, align 4, !tbaa !15
  br label %36

36:                                               ; preds = %47, %35
  %37 = load i32, ptr %5, align 4, !tbaa !15
  %38 = sext i32 %37 to i64
  %39 = icmp ult i64 %38, 4
  br i1 %39, label %40, label %50

40:                                               ; preds = %36
  %41 = load i32, ptr %5, align 4, !tbaa !15
  %42 = sext i32 %41 to i64
  %43 = getelementptr inbounds [4 x i32], ptr %6, i64 0, i64 %42
  %44 = load i32, ptr %43, align 4, !tbaa !15
  %45 = load i32, ptr %7, align 4, !tbaa !15
  %46 = add nsw i32 %45, %44
  store i32 %46, ptr %7, align 4, !tbaa !15
  br label %47

47:                                               ; preds = %40
  %48 = load i32, ptr %5, align 4, !tbaa !15
  %49 = add nsw i32 %48, 1
  store i32 %49, ptr %5, align 4, !tbaa !15
  br label %36, !llvm.loop !55

50:                                               ; preds = %36
  %51 = load i32, ptr %7, align 4, !tbaa !15
  store i32 %51, ptr %2, align 4
  store i32 1, ptr %8, align 4
  br label %52

52:                                               ; preds = %50, %13
  call void @llvm.lifetime.end.p0(i64 4, ptr %7) #8
  call void @llvm.lifetime.end.p0(i64 16, ptr %6) #8
  call void @llvm.lifetime.end.p0(i64 4, ptr %5) #8
  call void @llvm.lifetime.end.p0(i64 8, ptr %4) #8
  %53 = load i32, ptr %2, align 4
  ret i32 %53
}