; Function Attrs: nofree norecurse nosync nounwind memory(none) uwtable
define i32 @av_pix_fmt_count_planes(i32 noundef %0) local_unnamed_addr #11 {
  %2 = alloca [4 x i32], align 16
  %or.cond.i = icmp ugt i32 %0, 257
  %3 = zext nneg i32 %0 to i64
  %4 = getelementptr inbounds nuw [258 x %struct.AVPixFmtDescriptor], ptr @av_pix_fmt_descriptors, i64 0, i64 %3
  call void @llvm.lifetime.start.p0(i64 16, ptr nonnull %2) #15
  call void @llvm.memset.p0.i64(ptr noundef nonnull align 16 dereferenceable(16) %2, i8 0, i64 16, i1 false)
  br i1 %or.cond.i, label %.loopexit, label %.preheader16

.preheader16:                                     ; preds = %1
  %5 = getelementptr inbounds nuw i8, ptr %4, i64 8
  %6 = load i8, ptr %5, align 8, !tbaa !30
  %.not = icmp eq i8 %6, 0
  br i1 %.not, label %.preheader.preheader, label %.lr.ph

.lr.ph:                                           ; preds = %.preheader16
  %7 = getelementptr inbounds nuw i8, ptr %4, i64 24
  %wide.trip.count = zext i8 %6 to i64
  br label %8

8:                                                ; preds = %.lr.ph, %8
  %indvars.iv = phi i64 [ 0, %.lr.ph ], [ %indvars.iv.next, %8 ]
  %9 = getelementptr inbounds nuw [4 x %struct.AVComponentDescriptor], ptr %7, i64 0, i64 %indvars.iv
  %10 = load i32, ptr %9, align 4, !tbaa !35
  %11 = sext i32 %10 to i64
  %12 = getelementptr inbounds [4 x i32], ptr %2, i64 0, i64 %11
  store i32 1, ptr %12, align 4, !tbaa !4
  %indvars.iv.next = add nuw nsw i64 %indvars.iv, 1
  %exitcond.not = icmp eq i64 %indvars.iv.next, %wide.trip.count
  br i1 %exitcond.not, label %.preheader.preheader, label %8, !llvm.loop !39

.preheader.preheader:                             ; preds = %8, %.preheader16
  br label %.preheader

.preheader:                                       ; preds = %.preheader.preheader, %.preheader
  %indvars.iv21 = phi i64 [ %indvars.iv.next22, %.preheader ], [ 0, %.preheader.preheader ]
  %.019 = phi i32 [ %15, %.preheader ], [ 0, %.preheader.preheader ]
  %13 = getelementptr inbounds nuw [4 x i32], ptr %2, i64 0, i64 %indvars.iv21
  %14 = load i32, ptr %13, align 4, !tbaa !4
  %15 = add nsw i32 %14, %.019
  %indvars.iv.next22 = add nuw nsw i64 %indvars.iv21, 1
  %exitcond24.not = icmp eq i64 %indvars.iv.next22, 4
  br i1 %exitcond24.not, label %.loopexit, label %.preheader, !llvm.loop !40

.loopexit:                                        ; preds = %.preheader, %1
  %.013 = phi i32 [ -22, %1 ], [ %15, %.preheader ]
  call void @llvm.lifetime.end.p0(i64 16, ptr nonnull %2) #15
  ret i32 %.013
}